target datalayout = "e-m:e-p270:32:32-p271:32:32-p272:64:64-i64:64-i128:128-f80:128-n8:16:32:64-S128"
target triple = "x86_64-pc-linux-gnu"

%struct.AVRational = type { i32, i32 }
%struct.AVIAMFParamDefinition = type { ptr, i64, i64, i32, i32, i32, i32, i32, i32 }
%struct.IAMFParamDefinition = type { ptr, ptr, i32, i64 }
%struct.AVIAMFDemixingInfo = type { ptr, i32, i32 }
%struct.AVIAMFMixGain = type { ptr, i32, i32, %struct.AVRational, %struct.AVRational, %struct.AVRational, %struct.AVRational }
%struct.AVIAMFReconGain = type { ptr, i32, [6 x [12 x i8]] }

@.str.18 = private unnamed_addr constant [30 x i8] c"Assertion %s failed at %s:%d\0A\00", align 1
@.str.19 = private unnamed_addr constant [24 x i8] c"idx < par->nb_subblocks\00", align 1
@.str.20 = private unnamed_addr constant [19 x i8] c"./libavutil/iamf.h\00", align 1

; Function Attrs: alwaysinline nounwind uwtable
define internal ptr @av_iamf_param_definition_get_subblock(ptr noundef %0, i32 noundef %1) #7 {
  %3 = alloca ptr, align 8
  %4 = alloca i32, align 4
  store ptr %0, ptr %3, align 8, !tbaa !95
  store i32 %1, ptr %4, align 4, !tbaa !39
  br label %5

5:                                                ; preds = %2
  %6 = load i32, ptr %4, align 4, !tbaa !39
  %7 = load ptr, ptr %3, align 8, !tbaa !95
  %8 = getelementptr inbounds nuw %struct.AVIAMFParamDefinition, ptr %7, i32 0, i32 3
  %9 = load i32, ptr %8, align 8, !tbaa !100
  %10 = icmp ult i32 %6, %9
  br i1 %10, label %12, label %11

11:                                               ; preds = %5
  call void (ptr, i32, ptr, ...) @av_log(ptr noundef null, i32 noundef 0, ptr noundef @.str.18, ptr noundef @.str.19, ptr noundef @.str.20, i32 noundef 262)
  call void @abort() #13
  unreachable

12:                                               ; preds = %5
  br label %13

13:                                               ; preds = %12
  %14 = load ptr, ptr %3, align 8, !tbaa !95
  %15 = load ptr, ptr %3, align 8, !tbaa !95
  %16 = getelementptr inbounds nuw %struct.AVIAMFParamDefinition, ptr %15, i32 0, i32 1
  %17 = load i64, ptr %16, align 8, !tbaa !244
  %18 = getelementptr inbounds nuw i8, ptr %14, i64 %17
  %19 = load i32, ptr %4, align 4, !tbaa !39
  %20 = zext i32 %19 to i64
  %21 = load ptr, ptr %3, align 8, !tbaa !95
  %22 = getelementptr inbounds nuw %struct.AVIAMFParamDefinition, ptr %21, i32 0, i32 2
  %23 = load i64, ptr %22, align 8, !tbaa !245
  %24 = mul i64 %20, %23
  %25 = getelementptr inbounds nuw i8, ptr %18, i64 %24
  ret ptr %25
}

; Function Attrs: nounwind uwtable
define internal i32 @param_definition(ptr noundef %0, ptr noundef %1, ptr noundef %2, ptr noundef %3) #0 {
  %5 = alloca ptr, align 8
  %6 = alloca ptr, align 8
  %7 = alloca ptr, align 8
  %8 = alloca ptr, align 8
  %9 = alloca ptr, align 8
  %10 = alloca i32, align 4
  %11 = alloca i32, align 4
  %12 = alloca ptr, align 8
  %13 = alloca ptr, align 8
  %14 = alloca ptr, align 8
  %15 = alloca ptr, align 8
  store ptr %0, ptr %5, align 8, !tbaa !4
  store ptr %1, ptr %6, align 8, !tbaa !98
  store ptr %2, ptr %7, align 8, !tbaa !161
  store ptr %3, ptr %8, align 8, !tbaa !11
  call void @llvm.lifetime.start.p0(i64 8, ptr %9) #10
  %16 = load ptr, ptr %6, align 8, !tbaa !98
  %17 = getelementptr inbounds nuw %struct.IAMFParamDefinition, ptr %16, i32 0, i32 1
  %18 = load ptr, ptr %17, align 8, !tbaa !123
  store ptr %18, ptr %9, align 8, !tbaa !95
  %19 = load ptr, ptr %7, align 8, !tbaa !161
  %20 = load ptr, ptr %9, align 8, !tbaa !95
  %21 = getelementptr inbounds nuw %struct.AVIAMFParamDefinition, ptr %20, i32 0, i32 5
  %22 = load i32, ptr %21, align 8, !tbaa !96
  call void @ffio_write_leb(ptr noundef %19, i32 noundef %22)
  %23 = load ptr, ptr %7, align 8, !tbaa !161
  %24 = load ptr, ptr %9, align 8, !tbaa !95
  %25 = getelementptr inbounds nuw %struct.AVIAMFParamDefinition, ptr %24, i32 0, i32 6
  %26 = load i32, ptr %25, align 4, !tbaa !127
  call void @ffio_write_leb(ptr noundef %23, i32 noundef %26)
  %27 = load ptr, ptr %7, align 8, !tbaa !161
  %28 = load ptr, ptr %9, align 8, !tbaa !95
  %29 = getelementptr inbounds nuw %struct.AVIAMFParamDefinition, ptr %28, i32 0, i32 7
  %30 = load i32, ptr %29, align 8, !tbaa !128
  %31 = icmp ne i32 %30, 0
  %32 = select i1 %31, i32 0, i32 128
  call void @avio_w8(ptr noundef %27, i32 noundef %32)
  %33 = load ptr, ptr %9, align 8, !tbaa !95
  %34 = getelementptr inbounds nuw %struct.AVIAMFParamDefinition, ptr %33, i32 0, i32 7
  %35 = load i32, ptr %34, align 8, !tbaa !128
  %36 = icmp ne i32 %35, 0
  br i1 %36, label %37, label %93

37:                                               ; preds = %4
  %38 = load ptr, ptr %7, align 8, !tbaa !161
  %39 = load ptr, ptr %9, align 8, !tbaa !95
  %40 = getelementptr inbounds nuw %struct.AVIAMFParamDefinition, ptr %39, i32 0, i32 7
  %41 = load i32, ptr %40, align 8, !tbaa !128
  call void @ffio_write_leb(ptr noundef %38, i32 noundef %41)
  %42 = load ptr, ptr %7, align 8, !tbaa !161
  %43 = load ptr, ptr %9, align 8, !tbaa !95
  %44 = getelementptr inbounds nuw %struct.AVIAMFParamDefinition, ptr %43, i32 0, i32 8
  %45 = load i32, ptr %44, align 4, !tbaa !129
  call void @ffio_write_leb(ptr noundef %42, i32 noundef %45)
  %46 = load ptr, ptr %9, align 8, !tbaa !95
  %47 = getelementptr inbounds nuw %struct.AVIAMFParamDefinition, ptr %46, i32 0, i32 8
  %48 = load i32, ptr %47, align 4, !tbaa !129
  %49 = icmp eq i32 %48, 0
  br i1 %49, label %50, label %92

50:                                               ; preds = %37
  %51 = load ptr, ptr %7, align 8, !tbaa !161
  %52 = load ptr, ptr %9, align 8, !tbaa !95
  %53 = getelementptr inbounds nuw %struct.AVIAMFParamDefinition, ptr %52, i32 0, i32 3
  %54 = load i32, ptr %53, align 8, !tbaa !100
  call void @ffio_write_leb(ptr noundef %51, i32 noundef %54)
  call void @llvm.lifetime.start.p0(i64 4, ptr %10) #10
  store i32 0, ptr %10, align 4, !tbaa !39
  br label %55

55:                                               ; preds = %88, %50
  %56 = load i32, ptr %10, align 4, !tbaa !39
  %57 = load ptr, ptr %9, align 8, !tbaa !95
  %58 = getelementptr inbounds nuw %struct.AVIAMFParamDefinition, ptr %57, i32 0, i32 3
  %59 = load i32, ptr %58, align 8, !tbaa !100
  %60 = icmp ult i32 %56, %59
  br i1 %60, label %62, label %61

61:                                               ; preds = %55
  store i32 2, ptr %11, align 4
  call void @llvm.lifetime.end.p0(i64 4, ptr %10) #10
  br label %91

62:                                               ; preds = %55
  call void @llvm.lifetime.start.p0(i64 8, ptr %12) #10
  %63 = load ptr, ptr %9, align 8, !tbaa !95
  %64 = load i32, ptr %10, align 4, !tbaa !39
  %65 = call ptr @av_iamf_param_definition_get_subblock(ptr noundef %63, i32 noundef %64)
  store ptr %65, ptr %12, align 8, !tbaa !11
  %66 = load ptr, ptr %9, align 8, !tbaa !95
  %67 = getelementptr inbounds nuw %struct.AVIAMFParamDefinition, ptr %66, i32 0, i32 4
  %68 = load i32, ptr %67, align 4, !tbaa !208
  switch i32 %68, label %87 [
    i32 0, label %69
    i32 1, label %75
    i32 2, label %81
  ]

69:                                               ; preds = %62
  call void @llvm.lifetime.start.p0(i64 8, ptr %13) #10
  %70 = load ptr, ptr %12, align 8, !tbaa !11
  store ptr %70, ptr %13, align 8, !tbaa !209
  %71 = load ptr, ptr %7, align 8, !tbaa !161
  %72 = load ptr, ptr %13, align 8, !tbaa !209
  %73 = getelementptr inbounds nuw %struct.AVIAMFMixGain, ptr %72, i32 0, i32 1
  %74 = load i32, ptr %73, align 8, !tbaa !211
  call void @ffio_write_leb(ptr noundef %71, i32 noundef %74)
  store i32 5, ptr %11, align 4
  call void @llvm.lifetime.end.p0(i64 8, ptr %13) #10
  br label %87

75:                                               ; preds = %62
  call void @llvm.lifetime.start.p0(i64 8, ptr %14) #10
  %76 = load ptr, ptr %12, align 8, !tbaa !11
  store ptr %76, ptr %14, align 8, !tbaa !169
  %77 = load ptr, ptr %7, align 8, !tbaa !161
  %78 = load ptr, ptr %14, align 8, !tbaa !169
  %79 = getelementptr inbounds nuw %struct.AVIAMFDemixingInfo, ptr %78, i32 0, i32 1
  %80 = load i32, ptr %79, align 8, !tbaa !216
  call void @ffio_write_leb(ptr noundef %77, i32 noundef %80)
  store i32 5, ptr %11, align 4
  call void @llvm.lifetime.end.p0(i64 8, ptr %14) #10
  br label %87

81:                                               ; preds = %62
  call void @llvm.lifetime.start.p0(i64 8, ptr %15) #10
  %82 = load ptr, ptr %12, align 8, !tbaa !11
  store ptr %82, ptr %15, align 8, !tbaa !217
  %83 = load ptr, ptr %7, align 8, !tbaa !161
  %84 = load ptr, ptr %15, align 8, !tbaa !217
  %85 = getelementptr inbounds nuw %struct.AVIAMFReconGain, ptr %84, i32 0, i32 1
  %86 = load i32, ptr %85, align 8, !tbaa !219
  call void @ffio_write_leb(ptr noundef %83, i32 noundef %86)
  store i32 5, ptr %11, align 4
  call void @llvm.lifetime.end.p0(i64 8, ptr %15) #10
  br label %87

87:                                               ; preds = %62, %81, %75, %69
  call void @llvm.lifetime.end.p0(i64 8, ptr %12) #10
  br label %88

88:                                               ; preds = %87
  %89 = load i32, ptr %10, align 4, !tbaa !39
  %90 = add nsw i32 %89, 1
  store i32 %90, ptr %10, align 4, !tbaa !39
  br label %55, !llvm.loop !246

91:                                               ; preds = %61
  br label %92

92:                                               ; preds = %91, %37
  br label %93

93:                                               ; preds = %92, %4
  store i32 1, ptr %11, align 4
  call void @llvm.lifetime.end.p0(i64 8, ptr %9) #10
  ret i32 0
}