; Function Attrs: nounwind uwtable
define internal fastcc void @param_definition(ptr readonly captures(none) %.8.val, ptr noundef %0) unnamed_addr #0 {
  %2 = getelementptr inbounds nuw i8, ptr %.8.val, i64 32
  %3 = load i32, ptr %2, align 8, !tbaa !103
  tail call void @ffio_write_leb(ptr noundef %0, i32 noundef %3) #9
  %4 = getelementptr inbounds nuw i8, ptr %.8.val, i64 36
  %5 = load i32, ptr %4, align 4, !tbaa !114
  tail call void @ffio_write_leb(ptr noundef %0, i32 noundef %5) #9
  %6 = getelementptr inbounds nuw i8, ptr %.8.val, i64 40
  %7 = load i32, ptr %6, align 8, !tbaa !115
  %.not = icmp eq i32 %7, 0
  %8 = select i1 %.not, i32 128, i32 0
  tail call void @avio_w8(ptr noundef %0, i32 noundef %8) #9
  %9 = load i32, ptr %6, align 8, !tbaa !115
  %.not30 = icmp eq i32 %9, 0
  br i1 %.not30, label %.loopexit, label %10

10:                                               ; preds = %1
  tail call void @ffio_write_leb(ptr noundef %0, i32 noundef %9) #9
  %11 = getelementptr inbounds nuw i8, ptr %.8.val, i64 44
  %12 = load i32, ptr %11, align 4, !tbaa !116
  tail call void @ffio_write_leb(ptr noundef %0, i32 noundef %12) #9
  %13 = load i32, ptr %11, align 4, !tbaa !116
  %14 = icmp eq i32 %13, 0
  br i1 %14, label %15, label %.loopexit

15:                                               ; preds = %10
  %16 = getelementptr inbounds nuw i8, ptr %.8.val, i64 24
  %17 = load i32, ptr %16, align 8, !tbaa !112
  tail call void @ffio_write_leb(ptr noundef %0, i32 noundef %17) #9
  %18 = load i32, ptr %16, align 8, !tbaa !112
  %.not2 = icmp eq i32 %18, 0
  br i1 %.not2, label %.loopexit, label %av_iamf_param_definition_get_subblock.exit.lr.ph

av_iamf_param_definition_get_subblock.exit.lr.ph: ; preds = %15
  %19 = getelementptr inbounds nuw i8, ptr %.8.val, i64 8
  %20 = getelementptr inbounds nuw i8, ptr %.8.val, i64 16
  %21 = getelementptr inbounds nuw i8, ptr %.8.val, i64 28
  br label %av_iamf_param_definition_get_subblock.exit

av_iamf_param_definition_get_subblock.exit:       ; preds = %av_iamf_param_definition_get_subblock.exit.lr.ph, %30
  %indvars.iv = phi i64 [ 0, %av_iamf_param_definition_get_subblock.exit.lr.ph ], [ %indvars.iv.next, %30 ]
  %22 = load i32, ptr %21, align 4, !tbaa !178
  %switch = icmp ult i32 %22, 3
  br i1 %switch, label %.sink.split, label %30

.sink.split:                                      ; preds = %av_iamf_param_definition_get_subblock.exit
  %23 = load i64, ptr %19, align 8, !tbaa !152
  %24 = getelementptr inbounds nuw i8, ptr %.8.val, i64 %23
  %25 = load i64, ptr %20, align 8, !tbaa !179
  %26 = mul i64 %25, %indvars.iv
  %27 = getelementptr inbounds nuw i8, ptr %24, i64 %26
  %28 = getelementptr inbounds nuw i8, ptr %27, i64 8
  %29 = load i32, ptr %28, align 8, !tbaa !180
  tail call void @ffio_write_leb(ptr noundef %0, i32 noundef %29) #9
  br label %30

30:                                               ; preds = %av_iamf_param_definition_get_subblock.exit, %.sink.split
  %indvars.iv.next = add nuw nsw i64 %indvars.iv, 1
  %31 = load i32, ptr %16, align 8, !tbaa !112
  %32 = zext i32 %31 to i64
  %33 = icmp samesign ult i64 %indvars.iv.next, %32
  br i1 %33, label %av_iamf_param_definition_get_subblock.exit, label %.loopexit, !llvm.loop !223

.loopexit:                                        ; preds = %30, %15, %10, %1
  ret void
}